target datalayout = "e-m:e-p270:32:32-p271:32:32-p272:64:64-i64:64-i128:128-f80:128-n8:16:32:64-S128"
target triple = "x86_64-pc-linux-gnu"

%struct.asn1_string_st = type { i32, i32, ptr, i64 }

; Function Attrs: nounwind uwtable
define i32 @ossl_i2c_ASN1_BIT_STRING(ptr noundef %0, ptr noundef %1) #0 {
  %3 = alloca i32, align 4
  %4 = alloca ptr, align 8
  %5 = alloca ptr, align 8
  %6 = alloca i32, align 4
  %7 = alloca i32, align 4
  %8 = alloca i32, align 4
  %9 = alloca i32, align 4
  %10 = alloca ptr, align 8
  %11 = alloca ptr, align 8
  %12 = alloca i32, align 4
  store ptr %0, ptr %4, align 8, !tbaa !3
  store ptr %1, ptr %5, align 8, !tbaa !12
  call void @llvm.lifetime.start.p0(i64 4, ptr %6) #5
  call void @llvm.lifetime.start.p0(i64 4, ptr %7) #5
  call void @llvm.lifetime.start.p0(i64 4, ptr %8) #5
  call void @llvm.lifetime.start.p0(i64 4, ptr %9) #5
  call void @llvm.lifetime.start.p0(i64 8, ptr %10) #5
  call void @llvm.lifetime.start.p0(i64 8, ptr %11) #5
  %13 = load ptr, ptr %4, align 8, !tbaa !3
  %14 = icmp eq ptr %13, null
  br i1 %14, label %15, label %16

15:                                               ; preds = %2
  store i32 0, ptr %3, align 4
  store i32 1, ptr %12, align 4
  br label %158

16:                                               ; preds = %2
  %17 = load ptr, ptr %4, align 8, !tbaa !3
  %18 = getelementptr inbounds nuw %struct.asn1_string_st, ptr %17, i32 0, i32 0
  %19 = load i32, ptr %18, align 8, !tbaa !14
  store i32 %19, ptr %9, align 4, !tbaa !10
  %20 = load i32, ptr %9, align 4, !tbaa !10
  %21 = icmp sgt i32 %20, 0
  br i1 %21, label %22, label %117

22:                                               ; preds = %16
  %23 = load ptr, ptr %4, align 8, !tbaa !3
  %24 = getelementptr inbounds nuw %struct.asn1_string_st, ptr %23, i32 0, i32 3
  %25 = load i64, ptr %24, align 8, !tbaa !17
  %26 = and i64 %25, 8
  %27 = icmp ne i64 %26, 0
  br i1 %27, label %28, label %34

28:                                               ; preds = %22
  %29 = load ptr, ptr %4, align 8, !tbaa !3
  %30 = getelementptr inbounds nuw %struct.asn1_string_st, ptr %29, i32 0, i32 3
  %31 = load i64, ptr %30, align 8, !tbaa !17
  %32 = trunc i64 %31 to i32
  %33 = and i32 %32, 7
  store i32 %33, ptr %8, align 4, !tbaa !10
  br label %116

34:                                               ; preds = %22
  br label %35

35:                                               ; preds = %50, %34
  %36 = load i32, ptr %9, align 4, !tbaa !10
  %37 = icmp sgt i32 %36, 0
  br i1 %37, label %38, label %53

38:                                               ; preds = %35
  %39 = load ptr, ptr %4, align 8, !tbaa !3
  %40 = getelementptr inbounds nuw %struct.asn1_string_st, ptr %39, i32 0, i32 2
  %41 = load ptr, ptr %40, align 8, !tbaa !18
  %42 = load i32, ptr %9, align 4, !tbaa !10
  %43 = sub nsw i32 %42, 1
  %44 = sext i32 %43 to i64
  %45 = getelementptr inbounds i8, ptr %41, i64 %44
  %46 = load i8, ptr %45, align 1, !tbaa !19
  %47 = icmp ne i8 %46, 0
  br i1 %47, label %48, label %49

48:                                               ; preds = %38
  br label %53

49:                                               ; preds = %38
  br label %50

50:                                               ; preds = %49
  %51 = load i32, ptr %9, align 4, !tbaa !10
  %52 = add nsw i32 %51, -1
  store i32 %52, ptr %9, align 4, !tbaa !10
  br label %35, !llvm.loop !20

53:                                               ; preds = %48, %35
  %54 = load i32, ptr %9, align 4, !tbaa !10
  %55 = icmp eq i32 %54, 0
  br i1 %55, label %56, label %57

56:                                               ; preds = %53
  store i32 0, ptr %8, align 4, !tbaa !10
  br label %115

57:                                               ; preds = %53
  %58 = load ptr, ptr %4, align 8, !tbaa !3
  %59 = getelementptr inbounds nuw %struct.asn1_string_st, ptr %58, i32 0, i32 2
  %60 = load ptr, ptr %59, align 8, !tbaa !18
  %61 = load i32, ptr %9, align 4, !tbaa !10
  %62 = sub nsw i32 %61, 1
  %63 = sext i32 %62 to i64
  %64 = getelementptr inbounds i8, ptr %60, i64 %63
  %65 = load i8, ptr %64, align 1, !tbaa !19
  %66 = zext i8 %65 to i32
  store i32 %66, ptr %7, align 4, !tbaa !10
  %67 = load i32, ptr %7, align 4, !tbaa !10
  %68 = and i32 %67, 1
  %69 = icmp ne i32 %68, 0
  br i1 %69, label %70, label %71

70:                                               ; preds = %57
  store i32 0, ptr %8, align 4, !tbaa !10
  br label %114

71:                                               ; preds = %57
  %72 = load i32, ptr %7, align 4, !tbaa !10
  %73 = and i32 %72, 2
  %74 = icmp ne i32 %73, 0
  br i1 %74, label %75, label %76

75:                                               ; preds = %71
  store i32 1, ptr %8, align 4, !tbaa !10
  br label %113

76:                                               ; preds = %71
  %77 = load i32, ptr %7, align 4, !tbaa !10
  %78 = and i32 %77, 4
  %79 = icmp ne i32 %78, 0
  br i1 %79, label %80, label %81

80:                                               ; preds = %76
  store i32 2, ptr %8, align 4, !tbaa !10
  br label %112

81:                                               ; preds = %76
  %82 = load i32, ptr %7, align 4, !tbaa !10
  %83 = and i32 %82, 8
  %84 = icmp ne i32 %83, 0
  br i1 %84, label %85, label %86

85:                                               ; preds = %81
  store i32 3, ptr %8, align 4, !tbaa !10
  br label %111

86:                                               ; preds = %81
  %87 = load i32, ptr %7, align 4, !tbaa !10
  %88 = and i32 %87, 16
  %89 = icmp ne i32 %88, 0
  br i1 %89, label %90, label %91

90:                                               ; preds = %86
  store i32 4, ptr %8, align 4, !tbaa !10
  br label %110

91:                                               ; preds = %86
  %92 = load i32, ptr %7, align 4, !tbaa !10
  %93 = and i32 %92, 32
  %94 = icmp ne i32 %93, 0
  br i1 %94, label %95, label %96

95:                                               ; preds = %91
  store i32 5, ptr %8, align 4, !tbaa !10
  br label %109

96:                                               ; preds = %91
  %97 = load i32, ptr %7, align 4, !tbaa !10
  %98 = and i32 %97, 64
  %99 = icmp ne i32 %98, 0
  br i1 %99, label %100, label %101

100:                                              ; preds = %96
  store i32 6, ptr %8, align 4, !tbaa !10
  br label %108

101:                                              ; preds = %96
  %102 = load i32, ptr %7, align 4, !tbaa !10
  %103 = and i32 %102, 128
  %104 = icmp ne i32 %103, 0
  br i1 %104, label %105, label %106

105:                                              ; preds = %101
  store i32 7, ptr %8, align 4, !tbaa !10
  br label %107

106:                                              ; preds = %101
  store i32 0, ptr %8, align 4, !tbaa !10
  br label %107

107:                                              ; preds = %106, %105
  br label %108

108:                                              ; preds = %107, %100
  br label %109

109:                                              ; preds = %108, %95
  br label %110

110:                                              ; preds = %109, %90
  br label %111

111:                                              ; preds = %110, %85
  br label %112

112:                                              ; preds = %111, %80
  br label %113

113:                                              ; preds = %112, %75
  br label %114

114:                                              ; preds = %113, %70
  br label %115

115:                                              ; preds = %114, %56
  br label %116

116:                                              ; preds = %115, %28
  br label %118

117:                                              ; preds = %16
  store i32 0, ptr %8, align 4, !tbaa !10
  br label %118

118:                                              ; preds = %117, %116
  %119 = load i32, ptr %9, align 4, !tbaa !10
  %120 = add nsw i32 1, %119
  store i32 %120, ptr %6, align 4, !tbaa !10
  %121 = load ptr, ptr %5, align 8, !tbaa !12
  %122 = icmp eq ptr %121, null
  br i1 %122, label %123, label %125

123:                                              ; preds = %118
  %124 = load i32, ptr %6, align 4, !tbaa !10
  store i32 %124, ptr %3, align 4
  store i32 1, ptr %12, align 4
  br label %158

125:                                              ; preds = %118
  %126 = load ptr, ptr %5, align 8, !tbaa !12
  %127 = load ptr, ptr %126, align 8, !tbaa !8
  store ptr %127, ptr %10, align 8, !tbaa !8
  %128 = load i32, ptr %8, align 4, !tbaa !10
  %129 = trunc i32 %128 to i8
  %130 = load ptr, ptr %10, align 8, !tbaa !8
  %131 = getelementptr inbounds nuw i8, ptr %130, i32 1
  store ptr %131, ptr %10, align 8, !tbaa !8
  store i8 %129, ptr %130, align 1, !tbaa !19
  %132 = load ptr, ptr %4, align 8, !tbaa !3
  %133 = getelementptr inbounds nuw %struct.asn1_string_st, ptr %132, i32 0, i32 2
  %134 = load ptr, ptr %133, align 8, !tbaa !18
  store ptr %134, ptr %11, align 8, !tbaa !8
  %135 = load i32, ptr %9, align 4, !tbaa !10
  %136 = icmp sgt i32 %135, 0
  br i1 %136, label %137, label %154

137:                                              ; preds = %125
  %138 = load ptr, ptr %10, align 8, !tbaa !8
  %139 = load ptr, ptr %11, align 8, !tbaa !8
  %140 = load i32, ptr %9, align 4, !tbaa !10
  %141 = sext i32 %140 to i64
  call void @llvm.memcpy.p0.p0.i64(ptr align 1 %138, ptr align 1 %139, i64 %141, i1 false)
  %142 = load i32, ptr %9, align 4, !tbaa !10
  %143 = load ptr, ptr %10, align 8, !tbaa !8
  %144 = sext i32 %142 to i64
  %145 = getelementptr inbounds i8, ptr %143, i64 %144
  store ptr %145, ptr %10, align 8, !tbaa !8
  %146 = load i32, ptr %8, align 4, !tbaa !10
  %147 = shl i32 255, %146
  %148 = load ptr, ptr %10, align 8, !tbaa !8
  %149 = getelementptr inbounds i8, ptr %148, i64 -1
  %150 = load i8, ptr %149, align 1, !tbaa !19
  %151 = zext i8 %150 to i32
  %152 = and i32 %151, %147
  %153 = trunc i32 %152 to i8
  store i8 %153, ptr %149, align 1, !tbaa !19
  br label %154

154:                                              ; preds = %137, %125
  %155 = load ptr, ptr %10, align 8, !tbaa !8
  %156 = load ptr, ptr %5, align 8, !tbaa !12
  store ptr %155, ptr %156, align 8, !tbaa !8
  %157 = load i32, ptr %6, align 4, !tbaa !10
  store i32 %157, ptr %3, align 4
  store i32 1, ptr %12, align 4
  br label %158

158:                                              ; preds = %154, %123, %15
  call void @llvm.lifetime.end.p0(i64 8, ptr %11) #5
  call void @llvm.lifetime.end.p0(i64 8, ptr %10) #5
  call void @llvm.lifetime.end.p0(i64 4, ptr %9) #5
  call void @llvm.lifetime.end.p0(i64 4, ptr %8) #5
  call void @llvm.lifetime.end.p0(i64 4, ptr %7) #5
  call void @llvm.lifetime.end.p0(i64 4, ptr %6) #5
  %159 = load i32, ptr %3, align 4
  ret i32 %159
}