; Function Attrs: nofree norecurse nosync nounwind memory(readwrite, inaccessiblemem: none) uwtable
define range(i32 -2147483647, -2147483648) i32 @ossl_i2c_ASN1_BIT_STRING(ptr noundef readonly captures(address_is_null) %0, ptr noundef captures(address_is_null) %1) local_unnamed_addr #2 {
  %3 = icmp eq ptr %0, null
  br i1 %3, label %64, label %4

4:                                                ; preds = %2
  %5 = load i32, ptr %0, align 8, !tbaa !3
  %6 = icmp sgt i32 %5, 0
  br i1 %6, label %7, label %41

7:                                                ; preds = %4
  %8 = getelementptr inbounds nuw i8, ptr %0, i64 16
  %9 = load i64, ptr %8, align 8, !tbaa !11
  %10 = and i64 %9, 8
  %.not = icmp eq i64 %10, 0
  br i1 %.not, label %.lr.ph, label %13

.lr.ph:                                           ; preds = %7
  %11 = getelementptr inbounds nuw i8, ptr %0, i64 8
  %12 = load ptr, ptr %11, align 8, !tbaa !12
  %invariant.gep = getelementptr i8, ptr %12, i64 -1
  br label %16

13:                                               ; preds = %7
  %14 = trunc i64 %9 to i32
  %15 = and i32 %14, 7
  br label %41

16:                                               ; preds = %.lr.ph, %19
  %.03964 = phi i32 [ %5, %.lr.ph ], [ %20, %19 ]
  %17 = zext nneg i32 %.03964 to i64
  %gep = getelementptr i8, ptr %invariant.gep, i64 %17
  %18 = load i8, ptr %gep, align 1, !tbaa !13
  %.not45 = icmp eq i8 %18, 0
  br i1 %.not45, label %19, label %.thread

19:                                               ; preds = %16
  %20 = add nsw i32 %.03964, -1
  %21 = icmp sgt i32 %.03964, 1
  br i1 %21, label %16, label %.thread54, !llvm.loop !14

.thread:                                          ; preds = %16
  %22 = zext nneg i32 %.03964 to i64
  %23 = getelementptr i8, ptr %12, i64 %22
  %24 = getelementptr i8, ptr %23, i64 -1
  %25 = load i8, ptr %24, align 1, !tbaa !13
  %26 = zext i8 %25 to i32
  %27 = and i32 %26, 1
  %.not46 = icmp eq i32 %27, 0
  br i1 %.not46, label %28, label %41

28:                                               ; preds = %.thread
  %29 = and i32 %26, 2
  %.not47 = icmp eq i32 %29, 0
  br i1 %.not47, label %30, label %41

30:                                               ; preds = %28
  %31 = and i32 %26, 4
  %.not48 = icmp eq i32 %31, 0
  br i1 %.not48, label %32, label %41

32:                                               ; preds = %30
  %33 = and i32 %26, 8
  %.not49 = icmp eq i32 %33, 0
  br i1 %.not49, label %34, label %41

34:                                               ; preds = %32
  %35 = and i32 %26, 16
  %.not50 = icmp eq i32 %35, 0
  br i1 %.not50, label %36, label %41

36:                                               ; preds = %34
  %37 = and i32 %26, 32
  %.not51 = icmp eq i32 %37, 0
  br i1 %.not51, label %38, label %41

38:                                               ; preds = %36
  %39 = and i32 %26, 64
  %.not52 = icmp eq i32 %39, 0
  br i1 %.not52, label %40, label %41

40:                                               ; preds = %38
  %.not53 = icmp eq i8 %25, 0
  %. = select i1 %.not53, i32 0, i32 7
  br label %41

41:                                               ; preds = %4, %40, %38, %36, %34, %32, %30, %28, %.thread, %13
  %.040 = phi i32 [ %15, %13 ], [ 0, %.thread ], [ 1, %28 ], [ 2, %30 ], [ 3, %32 ], [ 4, %34 ], [ 5, %36 ], [ 6, %38 ], [ %., %40 ], [ 0, %4 ]
  %.1 = phi i32 [ %5, %13 ], [ %.03964, %.thread ], [ %.03964, %28 ], [ %.03964, %30 ], [ %.03964, %32 ], [ %.03964, %34 ], [ %.03964, %36 ], [ %.03964, %38 ], [ %.03964, %40 ], [ %5, %4 ]
  %42 = add nsw i32 %.1, 1
  %43 = icmp eq ptr %1, null
  br i1 %43, label %64, label %47

.thread54:                                        ; preds = %19
  %44 = icmp eq ptr %1, null
  br i1 %44, label %64, label %.thread59

.thread59:                                        ; preds = %.thread54
  %45 = load ptr, ptr %1, align 8, !tbaa !16
  %46 = getelementptr inbounds nuw i8, ptr %45, i64 1
  store i8 0, ptr %45, align 1, !tbaa !13
  br label %62

47:                                               ; preds = %41
  %48 = load ptr, ptr %1, align 8, !tbaa !16
  %49 = trunc nuw nsw i32 %.040 to i8
  %50 = getelementptr inbounds nuw i8, ptr %48, i64 1
  store i8 %49, ptr %48, align 1, !tbaa !13
  %51 = icmp sgt i32 %.1, 0
  br i1 %51, label %52, label %62

52:                                               ; preds = %47
  %53 = getelementptr inbounds nuw i8, ptr %0, i64 8
  %54 = load ptr, ptr %53, align 8, !tbaa !12
  %55 = zext nneg i32 %.1 to i64
  tail call void @llvm.memcpy.p0.p0.i64(ptr nonnull align 1 %50, ptr align 1 %54, i64 %55, i1 false)
  %56 = getelementptr inbounds nuw i8, ptr %50, i64 %55
  %57 = shl nuw nsw i32 255, %.040
  %58 = getelementptr inbounds i8, ptr %56, i64 -1
  %59 = load i8, ptr %58, align 1, !tbaa !13
  %60 = trunc i32 %57 to i8
  %61 = and i8 %59, %60
  store i8 %61, ptr %58, align 1, !tbaa !13
  br label %62

62:                                               ; preds = %.thread59, %52, %47
  %63 = phi i32 [ %42, %52 ], [ %42, %47 ], [ 1, %.thread59 ]
  %.038 = phi ptr [ %56, %52 ], [ %50, %47 ], [ %46, %.thread59 ]
  store ptr %.038, ptr %1, align 8, !tbaa !16
  br label %64

64:                                               ; preds = %.thread54, %41, %2, %62
  %.0 = phi i32 [ %63, %62 ], [ 0, %2 ], [ %42, %41 ], [ 1, %.thread54 ]
  ret i32 %.0
}